target datalayout = "e-m:e-p270:32:32-p271:32:32-p272:64:64-i64:64-i128:128-f80:128-n8:16:32:64-S128"
target triple = "x86_64-pc-linux-gnu"

%struct.PJconsts = type { ptr, ptr, ptr, ptr, ptr, ptr, ptr, ptr, ptr, ptr, ptr, ptr, i32, ptr, ptr, ptr, ptr, ptr, ptr, ptr, ptr, double, double, double, double, double, double, double, double, double, double, double, double, double, double, double, double, double, double, double, double, double, double, i32, i32, i32, i32, i32, i32, i32, i32, i32, i32, i32, ptr, ptr, ptr, ptr, ptr, ptr, double, double, double, double, double, double, double, double, double, double, double, i32, [7 x double], i32, ptr, ptr, double, double, i32, [4 x i8], %"class.std::shared_ptr", i8, double, i8, %"class.std::__cxx11::basic_string", %"class.std::__cxx11::basic_string", %"class.std::__cxx11::basic_string", i8, %"class.std::vector", i32, %"class.std::vector.3", i32, i8, i8, i8, ptr }
%"class.std::shared_ptr" = type { %"class.std::__shared_ptr" }
%"class.std::__shared_ptr" = type { ptr, %"class.std::__shared_count" }
%"class.std::__shared_count" = type { ptr }
%"class.std::__cxx11::basic_string" = type { %"struct.std::__cxx11::basic_string<char>::_Alloc_hider", i64, %union.anon }
%"struct.std::__cxx11::basic_string<char>::_Alloc_hider" = type { ptr }
%union.anon = type { i64, [8 x i8] }
%"class.std::vector" = type { %"struct.std::_Vector_base" }
%"struct.std::_Vector_base" = type { %"struct.std::_Vector_base<osgeo::proj::operation::GridDescription, std::allocator<osgeo::proj::operation::GridDescription>>::_Vector_impl" }
%"struct.std::_Vector_base<osgeo::proj::operation::GridDescription, std::allocator<osgeo::proj::operation::GridDescription>>::_Vector_impl" = type { %"struct.std::_Vector_base<osgeo::proj::operation::GridDescription, std::allocator<osgeo::proj::operation::GridDescription>>::_Vector_impl_data" }
%"struct.std::_Vector_base<osgeo::proj::operation::GridDescription, std::allocator<osgeo::proj::operation::GridDescription>>::_Vector_impl_data" = type { ptr, ptr, ptr }
%"class.std::vector.3" = type { %"struct.std::_Vector_base.4" }
%"struct.std::_Vector_base.4" = type { %"struct.std::_Vector_base<PJCoordOperation, std::allocator<PJCoordOperation>>::_Vector_impl" }
%"struct.std::_Vector_base<PJCoordOperation, std::allocator<PJCoordOperation>>::_Vector_impl" = type { %"struct.std::_Vector_base<PJCoordOperation, std::allocator<PJCoordOperation>>::_Vector_impl_data" }
%"struct.std::_Vector_base<PJCoordOperation, std::allocator<PJCoordOperation>>::_Vector_impl_data" = type { ptr, ptr, ptr }
%"struct.(anonymous namespace)::pj_nsper_data" = type { double, double, double, double, double, double, double, double, double, double, double, double, i32, i32 }
%struct.PJ_LP = type { double, double }
%struct.PJ_XY = type { double, double }

; Function Attrs: mustprogress uwtable
define internal { double, double } @_ZL15nsper_s_inverse5PJ_XYP8PJconsts(double %0, double %1, ptr noundef %2) #0 {
  %4 = alloca %struct.PJ_LP, align 8
  %5 = alloca %struct.PJ_XY, align 8
  %6 = alloca ptr, align 8
  %7 = alloca ptr, align 8
  %8 = alloca double, align 8
  %9 = alloca double, align 8
  %10 = alloca double, align 8
  %11 = alloca double, align 8
  %12 = alloca double, align 8
  %13 = alloca double, align 8
  %14 = alloca i32, align 4
  %15 = getelementptr inbounds nuw { double, double }, ptr %5, i32 0, i32 0
  store double %0, ptr %15, align 8
  %16 = getelementptr inbounds nuw { double, double }, ptr %5, i32 0, i32 1
  store double %1, ptr %16, align 8
  store ptr %2, ptr %6, align 8, !tbaa !3
  call void @llvm.memset.p0.i64(ptr align 8 %4, i8 0, i64 16, i1 false)
  call void @llvm.lifetime.start.p0(i64 8, ptr %7) #7
  %17 = load ptr, ptr %6, align 8, !tbaa !3
  %18 = getelementptr inbounds nuw %struct.PJconsts, ptr %17, i32 0, i32 11
  %19 = load ptr, ptr %18, align 8, !tbaa !43
  store ptr %19, ptr %7, align 8, !tbaa !41
  call void @llvm.lifetime.start.p0(i64 8, ptr %8) #7
  %20 = load ptr, ptr %7, align 8, !tbaa !41
  %21 = getelementptr inbounds nuw %"struct.(anonymous namespace)::pj_nsper_data", ptr %20, i32 0, i32 13
  %22 = load i32, ptr %21, align 4, !tbaa !44
  %23 = icmp ne i32 %22, 0
  br i1 %23, label %24, label %79

24:                                               ; preds = %3
  call void @llvm.lifetime.start.p0(i64 8, ptr %9) #7
  call void @llvm.lifetime.start.p0(i64 8, ptr %10) #7
  call void @llvm.lifetime.start.p0(i64 8, ptr %11) #7
  %25 = load ptr, ptr %7, align 8, !tbaa !41
  %26 = getelementptr inbounds nuw %"struct.(anonymous namespace)::pj_nsper_data", ptr %25, i32 0, i32 5
  %27 = load double, ptr %26, align 8, !tbaa !57
  %28 = getelementptr inbounds nuw %struct.PJ_XY, ptr %5, i32 0, i32 1
  %29 = load double, ptr %28, align 8, !tbaa !70
  %30 = load ptr, ptr %7, align 8, !tbaa !41
  %31 = getelementptr inbounds nuw %"struct.(anonymous namespace)::pj_nsper_data", ptr %30, i32 0, i32 10
  %32 = load double, ptr %31, align 8, !tbaa !69
  %33 = fneg double %29
  %34 = call double @llvm.fmuladd.f64(double %33, double %32, double %27)
  %35 = fdiv double 1.000000e+00, %34
  store double %35, ptr %11, align 8, !tbaa !65
  %36 = load ptr, ptr %7, align 8, !tbaa !41
  %37 = getelementptr inbounds nuw %"struct.(anonymous namespace)::pj_nsper_data", ptr %36, i32 0, i32 5
  %38 = load double, ptr %37, align 8, !tbaa !57
  %39 = getelementptr inbounds nuw %struct.PJ_XY, ptr %5, i32 0, i32 0
  %40 = load double, ptr %39, align 8, !tbaa !72
  %41 = fmul double %38, %40
  %42 = load double, ptr %11, align 8, !tbaa !65
  %43 = fmul double %41, %42
  store double %43, ptr %9, align 8, !tbaa !65
  %44 = load ptr, ptr %7, align 8, !tbaa !41
  %45 = getelementptr inbounds nuw %"struct.(anonymous namespace)::pj_nsper_data", ptr %44, i32 0, i32 5
  %46 = load double, ptr %45, align 8, !tbaa !57
  %47 = getelementptr inbounds nuw %struct.PJ_XY, ptr %5, i32 0, i32 1
  %48 = load double, ptr %47, align 8, !tbaa !70
  %49 = fmul double %46, %48
  %50 = load ptr, ptr %7, align 8, !tbaa !41
  %51 = getelementptr inbounds nuw %"struct.(anonymous namespace)::pj_nsper_data", ptr %50, i32 0, i32 11
  %52 = load double, ptr %51, align 8, !tbaa !68
  %53 = fmul double %49, %52
  %54 = load double, ptr %11, align 8, !tbaa !65
  %55 = fmul double %53, %54
  store double %55, ptr %10, align 8, !tbaa !65
  %56 = load double, ptr %9, align 8, !tbaa !65
  %57 = load ptr, ptr %7, align 8, !tbaa !41
  %58 = getelementptr inbounds nuw %"struct.(anonymous namespace)::pj_nsper_data", ptr %57, i32 0, i32 8
  %59 = load double, ptr %58, align 8, !tbaa !66
  %60 = load double, ptr %10, align 8, !tbaa !65
  %61 = load ptr, ptr %7, align 8, !tbaa !41
  %62 = getelementptr inbounds nuw %"struct.(anonymous namespace)::pj_nsper_data", ptr %61, i32 0, i32 9
  %63 = load double, ptr %62, align 8, !tbaa !67
  %64 = fmul double %60, %63
  %65 = call double @llvm.fmuladd.f64(double %56, double %59, double %64)
  %66 = getelementptr inbounds nuw %struct.PJ_XY, ptr %5, i32 0, i32 0
  store double %65, ptr %66, align 8, !tbaa !72
  %67 = load double, ptr %10, align 8, !tbaa !65
  %68 = load ptr, ptr %7, align 8, !tbaa !41
  %69 = getelementptr inbounds nuw %"struct.(anonymous namespace)::pj_nsper_data", ptr %68, i32 0, i32 8
  %70 = load double, ptr %69, align 8, !tbaa !66
  %71 = load double, ptr %9, align 8, !tbaa !65
  %72 = load ptr, ptr %7, align 8, !tbaa !41
  %73 = getelementptr inbounds nuw %"struct.(anonymous namespace)::pj_nsper_data", ptr %72, i32 0, i32 9
  %74 = load double, ptr %73, align 8, !tbaa !67
  %75 = fmul double %71, %74
  %76 = fneg double %75
  %77 = call double @llvm.fmuladd.f64(double %67, double %70, double %76)
  %78 = getelementptr inbounds nuw %struct.PJ_XY, ptr %5, i32 0, i32 1
  store double %77, ptr %78, align 8, !tbaa !70
  call void @llvm.lifetime.end.p0(i64 8, ptr %11) #7
  call void @llvm.lifetime.end.p0(i64 8, ptr %10) #7
  call void @llvm.lifetime.end.p0(i64 8, ptr %9) #7
  br label %79

79:                                               ; preds = %24, %3
  %80 = getelementptr inbounds nuw %struct.PJ_XY, ptr %5, i32 0, i32 0
  %81 = load double, ptr %80, align 8, !tbaa !72
  %82 = getelementptr inbounds nuw %struct.PJ_XY, ptr %5, i32 0, i32 1
  %83 = load double, ptr %82, align 8, !tbaa !70
  %84 = call double @hypot(double noundef %81, double noundef %83) #7, !tbaa !53
  store double %84, ptr %8, align 8, !tbaa !65
  %85 = load double, ptr %8, align 8, !tbaa !65
  %86 = call double @llvm.fabs.f64(double %85)
  %87 = fcmp ole double %86, 1.000000e-10
  br i1 %87, label %88, label %94

88:                                               ; preds = %79
  %89 = getelementptr inbounds nuw %struct.PJ_LP, ptr %4, i32 0, i32 0
  store double 0.000000e+00, ptr %89, align 8, !tbaa !73
  %90 = load ptr, ptr %6, align 8, !tbaa !3
  %91 = getelementptr inbounds nuw %struct.PJconsts, ptr %90, i32 0, i32 61
  %92 = load double, ptr %91, align 8, !tbaa !51
  %93 = getelementptr inbounds nuw %struct.PJ_LP, ptr %4, i32 0, i32 1
  store double %92, ptr %93, align 8, !tbaa !75
  br label %213

94:                                               ; preds = %79
  call void @llvm.lifetime.start.p0(i64 8, ptr %12) #7
  call void @llvm.lifetime.start.p0(i64 8, ptr %13) #7
  %95 = load double, ptr %8, align 8, !tbaa !65
  %96 = load double, ptr %8, align 8, !tbaa !65
  %97 = fmul double %95, %96
  %98 = load ptr, ptr %7, align 8, !tbaa !41
  %99 = getelementptr inbounds nuw %"struct.(anonymous namespace)::pj_nsper_data", ptr %98, i32 0, i32 6
  %100 = load double, ptr %99, align 8, !tbaa !61
  %101 = fneg double %97
  %102 = call double @llvm.fmuladd.f64(double %101, double %100, double 1.000000e+00)
  store double %102, ptr %13, align 8, !tbaa !65
  %103 = load double, ptr %13, align 8, !tbaa !65
  %104 = fcmp olt double %103, 0.000000e+00
  br i1 %104, label %105, label %108

105:                                              ; preds = %94
  %106 = load ptr, ptr %6, align 8, !tbaa !3
  %107 = call i32 @proj_errno_set(ptr noundef %106, i32 noundef 2050)
  store i32 1, ptr %14, align 4
  br label %210

108:                                              ; preds = %94
  %109 = load ptr, ptr %7, align 8, !tbaa !41
  %110 = getelementptr inbounds nuw %"struct.(anonymous namespace)::pj_nsper_data", ptr %109, i32 0, i32 3
  %111 = load double, ptr %110, align 8, !tbaa !58
  %112 = load double, ptr %13, align 8, !tbaa !65
  %113 = call double @sqrt(double noundef %112) #7, !tbaa !53
  %114 = fsub double %111, %113
  %115 = load ptr, ptr %7, align 8, !tbaa !41
  %116 = getelementptr inbounds nuw %"struct.(anonymous namespace)::pj_nsper_data", ptr %115, i32 0, i32 5
  %117 = load double, ptr %116, align 8, !tbaa !57
  %118 = load double, ptr %8, align 8, !tbaa !65
  %119 = fdiv double %117, %118
  %120 = load double, ptr %8, align 8, !tbaa !65
  %121 = load ptr, ptr %7, align 8, !tbaa !41
  %122 = getelementptr inbounds nuw %"struct.(anonymous namespace)::pj_nsper_data", ptr %121, i32 0, i32 5
  %123 = load double, ptr %122, align 8, !tbaa !57
  %124 = fdiv double %120, %123
  %125 = fadd double %119, %124
  %126 = fdiv double %114, %125
  store double %126, ptr %13, align 8, !tbaa !65
  %127 = load double, ptr %13, align 8, !tbaa !65
  %128 = load double, ptr %13, align 8, !tbaa !65
  %129 = fneg double %127
  %130 = call double @llvm.fmuladd.f64(double %129, double %128, double 1.000000e+00)
  %131 = call double @sqrt(double noundef %130) #7, !tbaa !53
  store double %131, ptr %12, align 8, !tbaa !65
  %132 = load ptr, ptr %7, align 8, !tbaa !41
  %133 = getelementptr inbounds nuw %"struct.(anonymous namespace)::pj_nsper_data", ptr %132, i32 0, i32 12
  %134 = load i32, ptr %133, align 8, !tbaa !52
  switch i32 %134, label %203 [
    i32 3, label %135
    i32 2, label %173
    i32 0, label %190
    i32 1, label %198
  ]

135:                                              ; preds = %108
  %136 = load double, ptr %12, align 8, !tbaa !65
  %137 = load ptr, ptr %7, align 8, !tbaa !41
  %138 = getelementptr inbounds nuw %"struct.(anonymous namespace)::pj_nsper_data", ptr %137, i32 0, i32 1
  %139 = load double, ptr %138, align 8, !tbaa !54
  %140 = getelementptr inbounds nuw %struct.PJ_XY, ptr %5, i32 0, i32 1
  %141 = load double, ptr %140, align 8, !tbaa !70
  %142 = load double, ptr %13, align 8, !tbaa !65
  %143 = fmul double %141, %142
  %144 = load ptr, ptr %7, align 8, !tbaa !41
  %145 = getelementptr inbounds nuw %"struct.(anonymous namespace)::pj_nsper_data", ptr %144, i32 0, i32 2
  %146 = load double, ptr %145, align 8, !tbaa !55
  %147 = fmul double %143, %146
  %148 = load double, ptr %8, align 8, !tbaa !65
  %149 = fdiv double %147, %148
  %150 = call double @llvm.fmuladd.f64(double %136, double %139, double %149)
  %151 = call double @asin(double noundef %150) #7, !tbaa !53
  %152 = getelementptr inbounds nuw %struct.PJ_LP, ptr %4, i32 0, i32 1
  store double %151, ptr %152, align 8, !tbaa !75
  %153 = load double, ptr %12, align 8, !tbaa !65
  %154 = load ptr, ptr %7, align 8, !tbaa !41
  %155 = getelementptr inbounds nuw %"struct.(anonymous namespace)::pj_nsper_data", ptr %154, i32 0, i32 1
  %156 = load double, ptr %155, align 8, !tbaa !54
  %157 = getelementptr inbounds nuw %struct.PJ_LP, ptr %4, i32 0, i32 1
  %158 = load double, ptr %157, align 8, !tbaa !75
  %159 = call double @sin(double noundef %158) #7, !tbaa !53
  %160 = fneg double %156
  %161 = call double @llvm.fmuladd.f64(double %160, double %159, double %153)
  %162 = load double, ptr %8, align 8, !tbaa !65
  %163 = fmul double %161, %162
  %164 = getelementptr inbounds nuw %struct.PJ_XY, ptr %5, i32 0, i32 1
  store double %163, ptr %164, align 8, !tbaa !70
  %165 = load double, ptr %13, align 8, !tbaa !65
  %166 = load ptr, ptr %7, align 8, !tbaa !41
  %167 = getelementptr inbounds nuw %"struct.(anonymous namespace)::pj_nsper_data", ptr %166, i32 0, i32 2
  %168 = load double, ptr %167, align 8, !tbaa !55
  %169 = fmul double %165, %168
  %170 = getelementptr inbounds nuw %struct.PJ_XY, ptr %5, i32 0, i32 0
  %171 = load double, ptr %170, align 8, !tbaa !72
  %172 = fmul double %171, %169
  store double %172, ptr %170, align 8, !tbaa !72
  br label %203

173:                                              ; preds = %108
  %174 = getelementptr inbounds nuw %struct.PJ_XY, ptr %5, i32 0, i32 1
  %175 = load double, ptr %174, align 8, !tbaa !70
  %176 = load double, ptr %13, align 8, !tbaa !65
  %177 = fmul double %175, %176
  %178 = load double, ptr %8, align 8, !tbaa !65
  %179 = fdiv double %177, %178
  %180 = call double @asin(double noundef %179) #7, !tbaa !53
  %181 = getelementptr inbounds nuw %struct.PJ_LP, ptr %4, i32 0, i32 1
  store double %180, ptr %181, align 8, !tbaa !75
  %182 = load double, ptr %12, align 8, !tbaa !65
  %183 = load double, ptr %8, align 8, !tbaa !65
  %184 = fmul double %182, %183
  %185 = getelementptr inbounds nuw %struct.PJ_XY, ptr %5, i32 0, i32 1
  store double %184, ptr %185, align 8, !tbaa !70
  %186 = load double, ptr %13, align 8, !tbaa !65
  %187 = getelementptr inbounds nuw %struct.PJ_XY, ptr %5, i32 0, i32 0
  %188 = load double, ptr %187, align 8, !tbaa !72
  %189 = fmul double %188, %186
  store double %189, ptr %187, align 8, !tbaa !72
  br label %203

190:                                              ; preds = %108
  %191 = load double, ptr %12, align 8, !tbaa !65
  %192 = call double @asin(double noundef %191) #7, !tbaa !53
  %193 = getelementptr inbounds nuw %struct.PJ_LP, ptr %4, i32 0, i32 1
  store double %192, ptr %193, align 8, !tbaa !75
  %194 = getelementptr inbounds nuw %struct.PJ_XY, ptr %5, i32 0, i32 1
  %195 = load double, ptr %194, align 8, !tbaa !70
  %196 = fneg double %195
  %197 = getelementptr inbounds nuw %struct.PJ_XY, ptr %5, i32 0, i32 1
  store double %196, ptr %197, align 8, !tbaa !70
  br label %203

198:                                              ; preds = %108
  %199 = load double, ptr %12, align 8, !tbaa !65
  %200 = call double @asin(double noundef %199) #7, !tbaa !53
  %201 = fneg double %200
  %202 = getelementptr inbounds nuw %struct.PJ_LP, ptr %4, i32 0, i32 1
  store double %201, ptr %202, align 8, !tbaa !75
  br label %203

203:                                              ; preds = %108, %198, %190, %173, %135
  %204 = getelementptr inbounds nuw %struct.PJ_XY, ptr %5, i32 0, i32 0
  %205 = load double, ptr %204, align 8, !tbaa !72
  %206 = getelementptr inbounds nuw %struct.PJ_XY, ptr %5, i32 0, i32 1
  %207 = load double, ptr %206, align 8, !tbaa !70
  %208 = call double @atan2(double noundef %205, double noundef %207) #7, !tbaa !53
  %209 = getelementptr inbounds nuw %struct.PJ_LP, ptr %4, i32 0, i32 0
  store double %208, ptr %209, align 8, !tbaa !73
  store i32 0, ptr %14, align 4
  br label %210

210:                                              ; preds = %203, %105
  call void @llvm.lifetime.end.p0(i64 8, ptr %13) #7
  call void @llvm.lifetime.end.p0(i64 8, ptr %12) #7
  %211 = load i32, ptr %14, align 4
  switch i32 %211, label %214 [
    i32 0, label %212
  ]

212:                                              ; preds = %210
  br label %213

213:                                              ; preds = %212, %88
  store i32 1, ptr %14, align 4
  br label %214

214:                                              ; preds = %213, %210
  call void @llvm.lifetime.end.p0(i64 8, ptr %8) #7
  call void @llvm.lifetime.end.p0(i64 8, ptr %7) #7
  %215 = load { double, double }, ptr %4, align 8
  ret { double, double } %215
}