; Function Attrs: mustprogress uwtable
define internal { double, double } @_ZL15nsper_s_inverse5PJ_XYP8PJconsts(double %0, double %1, ptr noundef %2) #0 {
  %4 = getelementptr inbounds nuw i8, ptr %2, i64 88
  %5 = load ptr, ptr %4, align 8, !tbaa !3
  %6 = getelementptr inbounds nuw i8, ptr %5, i64 100
  %7 = load i32, ptr %6, align 4, !tbaa !60
  %.not = icmp eq i32 %7, 0
  br i1 %.not, label %32, label %8

8:                                                ; preds = %3
  %9 = getelementptr inbounds nuw i8, ptr %5, i64 40
  %10 = load double, ptr %9, align 8, !tbaa !52
  %11 = getelementptr inbounds nuw i8, ptr %5, i64 80
  %12 = load double, ptr %11, align 8, !tbaa !64
  %13 = fneg double %1
  %14 = tail call double @llvm.fmuladd.f64(double %13, double %12, double %10)
  %15 = fdiv double 1.000000e+00, %14
  %16 = fmul double %0, %10
  %17 = fmul double %16, %15
  %18 = fmul double %1, %10
  %19 = getelementptr inbounds nuw i8, ptr %5, i64 88
  %20 = load double, ptr %19, align 8, !tbaa !63
  %21 = fmul double %18, %20
  %22 = fmul double %21, %15
  %23 = getelementptr inbounds nuw i8, ptr %5, i64 64
  %24 = load double, ptr %23, align 8, !tbaa !61
  %25 = getelementptr inbounds nuw i8, ptr %5, i64 72
  %26 = load double, ptr %25, align 8, !tbaa !62
  %27 = fmul double %22, %26
  %28 = tail call double @llvm.fmuladd.f64(double %17, double %24, double %27)
  %29 = fneg double %26
  %30 = fmul double %17, %29
  %31 = tail call double @llvm.fmuladd.f64(double %22, double %24, double %30)
  br label %32

32:                                               ; preds = %8, %3
  %.sroa.0.0 = phi double [ %28, %8 ], [ %0, %3 ]
  %.sroa.9.0 = phi double [ %31, %8 ], [ %1, %3 ]
  %33 = tail call double @hypot(double noundef %.sroa.0.0, double noundef %.sroa.9.0) #6, !tbaa !48
  %34 = tail call double @llvm.fabs.f64(double %33)
  %35 = fcmp ugt double %34, 1.000000e-10
  br i1 %35, label %39, label %36

36:                                               ; preds = %32
  %37 = getelementptr inbounds nuw i8, ptr %2, i64 448
  %38 = load double, ptr %37, align 8, !tbaa !46
  br label %94

39:                                               ; preds = %32
  %40 = getelementptr inbounds nuw i8, ptr %5, i64 48
  %41 = load double, ptr %40, align 8, !tbaa !56
  %42 = fneg double %33
  %43 = fmul double %33, %42
  %44 = tail call double @llvm.fmuladd.f64(double %43, double %41, double 1.000000e+00)
  %45 = fcmp uge double %44, 0.000000e+00
  br i1 %45, label %48, label %46

46:                                               ; preds = %39
  %47 = tail call i32 @proj_errno_set(ptr noundef nonnull %2, i32 noundef 2050)
  br label %94

48:                                               ; preds = %39
  %49 = getelementptr inbounds nuw i8, ptr %5, i64 24
  %50 = load double, ptr %49, align 8, !tbaa !53
  %51 = tail call double @sqrt(double noundef %44) #6, !tbaa !48
  %52 = fsub double %50, %51
  %53 = getelementptr inbounds nuw i8, ptr %5, i64 40
  %54 = load double, ptr %53, align 8, !tbaa !52
  %55 = fdiv double %54, %33
  %56 = fdiv double %33, %54
  %57 = fadd double %55, %56
  %58 = fdiv double %52, %57
  %59 = fneg double %58
  %60 = tail call double @llvm.fmuladd.f64(double %59, double %58, double 1.000000e+00)
  %61 = tail call double @sqrt(double noundef %60) #6, !tbaa !48
  %62 = getelementptr inbounds nuw i8, ptr %5, i64 96
  %63 = load i32, ptr %62, align 8, !tbaa !47
  switch i32 %63, label %92 [
    i32 3, label %64
    i32 2, label %80
    i32 0, label %86
    i32 1, label %89
  ]

64:                                               ; preds = %48
  %65 = getelementptr inbounds nuw i8, ptr %5, i64 8
  %66 = load double, ptr %65, align 8, !tbaa !49
  %67 = fmul double %.sroa.9.0, %58
  %68 = getelementptr inbounds nuw i8, ptr %5, i64 16
  %69 = load double, ptr %68, align 8, !tbaa !50
  %70 = fmul double %67, %69
  %71 = fdiv double %70, %33
  %72 = tail call double @llvm.fmuladd.f64(double %61, double %66, double %71)
  %73 = tail call double @asin(double noundef %72) #6, !tbaa !48
  %74 = tail call double @sin(double noundef %73) #6, !tbaa !48
  %75 = fneg double %66
  %76 = tail call double @llvm.fmuladd.f64(double %75, double %74, double %61)
  %77 = fmul double %33, %76
  %78 = fmul double %58, %69
  %79 = fmul double %.sroa.0.0, %78
  br label %92

80:                                               ; preds = %48
  %81 = fmul double %.sroa.9.0, %58
  %82 = fdiv double %81, %33
  %83 = tail call double @asin(double noundef %82) #6, !tbaa !48
  %84 = fmul double %33, %61
  %85 = fmul double %.sroa.0.0, %58
  br label %92

86:                                               ; preds = %48
  %87 = tail call double @asin(double noundef %61) #6, !tbaa !48
  %88 = fneg double %.sroa.9.0
  br label %92

89:                                               ; preds = %48
  %90 = tail call double @asin(double noundef %61) #6, !tbaa !48
  %91 = fneg double %90
  br label %92

92:                                               ; preds = %89, %86, %80, %64, %48
  %.sroa.0.1 = phi double [ %.sroa.0.0, %48 ], [ %.sroa.0.0, %89 ], [ %.sroa.0.0, %86 ], [ %85, %80 ], [ %79, %64 ]
  %.sroa.9.1 = phi double [ %.sroa.9.0, %48 ], [ %.sroa.9.0, %89 ], [ %88, %86 ], [ %84, %80 ], [ %77, %64 ]
  %.sroa.4.2 = phi double [ 0.000000e+00, %48 ], [ %91, %89 ], [ %87, %86 ], [ %83, %80 ], [ %73, %64 ]
  %93 = tail call double @atan2(double noundef %.sroa.0.1, double noundef %.sroa.9.1) #6, !tbaa !48
  br label %94

94:                                               ; preds = %46, %92, %36
  %.sroa.4.3 = phi double [ %38, %36 ], [ 0.000000e+00, %46 ], [ %.sroa.4.2, %92 ]
  %.sroa.060.2 = phi double [ 0.000000e+00, %36 ], [ 0.000000e+00, %46 ], [ %93, %92 ]
  %.fca.0.insert = insertvalue { double, double } poison, double %.sroa.060.2, 0
  %.fca.1.insert = insertvalue { double, double } %.fca.0.insert, double %.sroa.4.3, 1
  ret { double, double } %.fca.1.insert
}